; ModuleID = 'bench/openssl/original/fmt.ll'
source_filename = "bench/openssl/original/fmt.ll"
target datalayout = "e-m:e-p270:32:32-p271:32:32-p272:64:64-i64:64-i128:128-f80:128-n8:16:32:64-S128"
target triple = "x86_64-pc-linux-gnu"

; Function Attrs: mustprogress nofree norecurse nosync nounwind willreturn memory(none) uwtable
define dso_local noundef range(i32 0, 2) i32 @FMT_istext(i32 noundef %0) local_unnamed_addr #0 {
  %2 = lshr i32 %0, 15
  %.lobit = and i32 %2, 1
  ret i32 %.lobit
}


!llvm.module.flags = !{!0, !1, !2, !3}

!0 = !{i32 1, !"wchar_size", i32 4}
!1 = !{i32 8, !"PIC Level", i32 2}
!2 = !{i32 7, !"PIE Level", i32 2}
!3 = !{i32 7, !"uwtable", i32 2}
